; Function Attrs: mustprogress nofree norecurse nosync nounwind willreturn memory(argmem: read) uwtable
define internal range(i32 0, 2) i32 @isMapNotify(ptr readnone captures(none) %0, ptr noundef readonly captures(none) %1, ptr noundef readonly captures(none) %2) #10 {
  %4 = load i32, ptr %1, align 8
  %5 = icmp eq i32 %4, 19
  br i1 %5, label %6, label %19

6:                                                ; preds = %3
  %7 = getelementptr inbounds nuw i8, ptr %1, i64 40
  %8 = load i64, ptr %7, align 8
  %9 = getelementptr inbounds nuw i8, ptr %2, i64 40
  %10 = load i64, ptr %9, align 8
  %11 = icmp eq i64 %8, %10
  br i1 %11, label %12, label %19

12:                                               ; preds = %6
  %13 = getelementptr inbounds nuw i8, ptr %1, i64 8
  %14 = load i64, ptr %13, align 8
  %15 = getelementptr inbounds nuw i8, ptr %2, i64 8
  %16 = load i64, ptr %15, align 8
  %17 = icmp eq i64 %14, %16
  %18 = zext i1 %17 to i32
  br label %19

19:                                               ; preds = %12, %6, %3
  %20 = phi i32 [ 0, %6 ], [ 0, %3 ], [ %18, %12 ]
  ret i32 %20
}